target datalayout = "e-m:e-p270:32:32-p271:32:32-p272:64:64-i64:64-i128:128-f80:128-n8:16:32:64-S128"
target triple = "x86_64-pc-linux-gnu"

%struct.epan_column_info = type { ptr, i32, ptr, ptr, ptr, %struct.col_expr_t, i32, ptr }
%struct.col_expr_t = type { ptr, ptr }
%struct.col_item_t = type { i32, ptr, ptr, ptr, i32, ptr, ptr, ptr, ptr, i32, i32, i32 }

@.str.6 = private unnamed_addr constant [29 x i8] c"%s:%u: failed assertion \22%s\22\00", align 1
@.str.7 = private unnamed_addr constant [20 x i8] c"epan/column-utils.c\00", align 1
@.str.8 = private unnamed_addr constant [4 x i8] c"str\00", align 1

; Function Attrs: nounwind uwtable
define i32 @col_get_writable(ptr noundef %0, i32 noundef %1) #0 {
  %3 = alloca i32, align 4
  %4 = alloca ptr, align 8
  %5 = alloca i32, align 4
  %6 = alloca i32, align 4
  %7 = alloca ptr, align 8
  store ptr %0, ptr %4, align 8
  store i32 %1, ptr %5, align 4
  %8 = load ptr, ptr %4, align 8
  %9 = icmp eq ptr %8, null
  br i1 %9, label %10, label %11

10:                                               ; preds = %2
  store i32 0, ptr %3, align 4
  br label %75

11:                                               ; preds = %2
  %12 = load i32, ptr %5, align 4
  %13 = icmp eq i32 %12, -1
  br i1 %13, label %19, label %14

14:                                               ; preds = %11
  %15 = load ptr, ptr %4, align 8
  %16 = getelementptr inbounds %struct.epan_column_info, ptr %15, i32 0, i32 6
  %17 = load i32, ptr %16, align 8
  %18 = icmp eq i32 %17, 0
  br i1 %18, label %19, label %23

19:                                               ; preds = %14, %11
  %20 = load ptr, ptr %4, align 8
  %21 = getelementptr inbounds %struct.epan_column_info, ptr %20, i32 0, i32 6
  %22 = load i32, ptr %21, align 8
  store i32 %22, ptr %3, align 4
  br label %75

23:                                               ; preds = %14
  %24 = load ptr, ptr %4, align 8
  %25 = getelementptr inbounds %struct.epan_column_info, ptr %24, i32 0, i32 3
  %26 = load ptr, ptr %25, align 8
  %27 = load i32, ptr %5, align 4
  %28 = sext i32 %27 to i64
  %29 = getelementptr i32, ptr %26, i64 %28
  %30 = load i32, ptr %29, align 4
  %31 = icmp sge i32 %30, 0
  br i1 %31, label %32, label %74

32:                                               ; preds = %23
  %33 = load ptr, ptr %4, align 8
  %34 = getelementptr inbounds %struct.epan_column_info, ptr %33, i32 0, i32 3
  %35 = load ptr, ptr %34, align 8
  %36 = load i32, ptr %5, align 4
  %37 = sext i32 %36 to i64
  %38 = getelementptr i32, ptr %35, i64 %37
  %39 = load i32, ptr %38, align 4
  store i32 %39, ptr %6, align 4
  br label %40

40:                                               ; preds = %70, %32
  %41 = load i32, ptr %6, align 4
  %42 = load ptr, ptr %4, align 8
  %43 = getelementptr inbounds %struct.epan_column_info, ptr %42, i32 0, i32 4
  %44 = load ptr, ptr %43, align 8
  %45 = load i32, ptr %5, align 4
  %46 = sext i32 %45 to i64
  %47 = getelementptr i32, ptr %44, i64 %46
  %48 = load i32, ptr %47, align 4
  %49 = icmp sle i32 %41, %48
  br i1 %49, label %50, label %73

50:                                               ; preds = %40
  %51 = load ptr, ptr %4, align 8
  %52 = getelementptr inbounds %struct.epan_column_info, ptr %51, i32 0, i32 2
  %53 = load ptr, ptr %52, align 8
  %54 = load i32, ptr %6, align 4
  %55 = sext i32 %54 to i64
  %56 = getelementptr %struct.col_item_t, ptr %53, i64 %55
  store ptr %56, ptr %7, align 8
  %57 = load ptr, ptr %7, align 8
  %58 = getelementptr inbounds %struct.col_item_t, ptr %57, i32 0, i32 1
  %59 = load ptr, ptr %58, align 8
  %60 = load i32, ptr %5, align 4
  %61 = sext i32 %60 to i64
  %62 = getelementptr i32, ptr %59, i64 %61
  %63 = load i32, ptr %62, align 4
  %64 = icmp ne i32 %63, 0
  br i1 %64, label %65, label %69

65:                                               ; preds = %50
  %66 = load ptr, ptr %7, align 8
  %67 = getelementptr inbounds %struct.col_item_t, ptr %66, i32 0, i32 10
  %68 = load i32, ptr %67, align 4
  store i32 %68, ptr %3, align 4
  br label %75

69:                                               ; preds = %50
  br label %70

70:                                               ; preds = %69
  %71 = load i32, ptr %6, align 4
  %72 = add i32 %71, 1
  store i32 %72, ptr %6, align 4
  br label %40, !llvm.loop !9

73:                                               ; preds = %40
  br label %74

74:                                               ; preds = %73, %23
  store i32 0, ptr %3, align 4
  br label %75

75:                                               ; preds = %74, %65, %19, %10
  %76 = load i32, ptr %3, align 4
  ret i32 %76
}

; Function Attrs: nounwind uwtable
define void @col_set_str(ptr noundef %0, i32 noundef %1, ptr noundef %2) #0 {
  %4 = alloca ptr, align 8
  %5 = alloca i32, align 4
  %6 = alloca ptr, align 8
  %7 = alloca i32, align 4
  %8 = alloca i64, align 8
  %9 = alloca ptr, align 8
  store ptr %0, ptr %4, align 8
  store i32 %1, ptr %5, align 4
  store ptr %2, ptr %6, align 8
  %10 = load ptr, ptr %6, align 8
  %11 = icmp ne ptr %10, null
  br i1 %11, label %12, label %13

12:                                               ; preds = %3
  br label %15

13:                                               ; preds = %3
  call void (ptr, ...) @proto_report_dissector_bug(ptr noundef @.str.6, ptr noundef @.str.7, i32 noundef 772, ptr noundef @.str.8) #10
  unreachable

14:                                               ; No predecessors!
  br label %15

15:                                               ; preds = %14, %12
  %16 = load ptr, ptr %4, align 8
  %17 = load i32, ptr %5, align 4
  %18 = call i32 @col_get_writable(ptr noundef %16, i32 noundef %17)
  %19 = icmp ne i32 %18, 0
  br i1 %19, label %20, label %29

20:                                               ; preds = %15
  %21 = load ptr, ptr %4, align 8
  %22 = getelementptr inbounds %struct.epan_column_info, ptr %21, i32 0, i32 3
  %23 = load ptr, ptr %22, align 8
  %24 = load i32, ptr %5, align 4
  %25 = sext i32 %24 to i64
  %26 = getelementptr i32, ptr %23, i64 %25
  %27 = load i32, ptr %26, align 4
  %28 = icmp sge i32 %27, 0
  br i1 %28, label %30, label %29

29:                                               ; preds = %20, %15
  br label %121

30:                                               ; preds = %20
  %31 = load i32, ptr %5, align 4
  %32 = icmp eq i32 %31, 25
  br i1 %32, label %33, label %34

33:                                               ; preds = %30
  store i64 4096, ptr %8, align 8
  br label %35

34:                                               ; preds = %30
  store i64 2048, ptr %8, align 8
  br label %35

35:                                               ; preds = %34, %33
  %36 = load ptr, ptr %4, align 8
  %37 = getelementptr inbounds %struct.epan_column_info, ptr %36, i32 0, i32 3
  %38 = load ptr, ptr %37, align 8
  %39 = load i32, ptr %5, align 4
  %40 = sext i32 %39 to i64
  %41 = getelementptr i32, ptr %38, i64 %40
  %42 = load i32, ptr %41, align 4
  store i32 %42, ptr %7, align 4
  br label %43

43:                                               ; preds = %118, %35
  %44 = load i32, ptr %7, align 4
  %45 = load ptr, ptr %4, align 8
  %46 = getelementptr inbounds %struct.epan_column_info, ptr %45, i32 0, i32 4
  %47 = load ptr, ptr %46, align 8
  %48 = load i32, ptr %5, align 4
  %49 = sext i32 %48 to i64
  %50 = getelementptr i32, ptr %47, i64 %49
  %51 = load i32, ptr %50, align 4
  %52 = icmp sle i32 %44, %51
  br i1 %52, label %53, label %121

53:                                               ; preds = %43
  %54 = load ptr, ptr %4, align 8
  %55 = getelementptr inbounds %struct.epan_column_info, ptr %54, i32 0, i32 2
  %56 = load ptr, ptr %55, align 8
  %57 = load i32, ptr %7, align 4
  %58 = sext i32 %57 to i64
  %59 = getelementptr %struct.col_item_t, ptr %56, i64 %58
  store ptr %59, ptr %9, align 8
  %60 = load ptr, ptr %9, align 8
  %61 = getelementptr inbounds %struct.col_item_t, ptr %60, i32 0, i32 1
  %62 = load ptr, ptr %61, align 8
  %63 = load i32, ptr %5, align 4
  %64 = sext i32 %63 to i64
  %65 = getelementptr i32, ptr %62, i64 %64
  %66 = load i32, ptr %65, align 4
  %67 = icmp ne i32 %66, 0
  br i1 %67, label %68, label %117

68:                                               ; preds = %53
  %69 = load ptr, ptr %9, align 8
  %70 = getelementptr inbounds %struct.col_item_t, ptr %69, i32 0, i32 9
  %71 = load i32, ptr %70, align 8
  %72 = icmp ne i32 %71, 0
  br i1 %72, label %73, label %112

73:                                               ; preds = %68
  %74 = load ptr, ptr %9, align 8
  %75 = getelementptr inbounds %struct.col_item_t, ptr %74, i32 0, i32 7
  %76 = load ptr, ptr %75, align 8
  %77 = load ptr, ptr %9, align 8
  %78 = getelementptr inbounds %struct.col_item_t, ptr %77, i32 0, i32 8
  %79 = load ptr, ptr %78, align 8
  %80 = icmp ne ptr %76, %79
  br i1 %80, label %81, label %95

81:                                               ; preds = %73
  %82 = load ptr, ptr %9, align 8
  %83 = getelementptr inbounds %struct.col_item_t, ptr %82, i32 0, i32 8
  %84 = load ptr, ptr %83, align 8
  %85 = load ptr, ptr %9, align 8
  %86 = getelementptr inbounds %struct.col_item_t, ptr %85, i32 0, i32 7
  %87 = load ptr, ptr %86, align 8
  %88 = load i64, ptr %8, align 8
  %89 = call i64 @g_strlcpy(ptr noundef %84, ptr noundef %87, i64 noundef %88)
  %90 = load ptr, ptr %9, align 8
  %91 = getelementptr inbounds %struct.col_item_t, ptr %90, i32 0, i32 8
  %92 = load ptr, ptr %91, align 8
  %93 = load ptr, ptr %9, align 8
  %94 = getelementptr inbounds %struct.col_item_t, ptr %93, i32 0, i32 7
  store ptr %92, ptr %94, align 8
  br label %95

95:                                               ; preds = %81, %73
  %96 = load ptr, ptr %9, align 8
  %97 = getelementptr inbounds %struct.col_item_t, ptr %96, i32 0, i32 8
  %98 = load ptr, ptr %97, align 8
  %99 = load ptr, ptr %9, align 8
  %100 = getelementptr inbounds %struct.col_item_t, ptr %99, i32 0, i32 9
  %101 = load i32, ptr %100, align 8
  %102 = sext i32 %101 to i64
  %103 = getelementptr i8, ptr %98, i64 %102
  %104 = load ptr, ptr %6, align 8
  %105 = load i64, ptr %8, align 8
  %106 = load ptr, ptr %9, align 8
  %107 = getelementptr inbounds %struct.col_item_t, ptr %106, i32 0, i32 9
  %108 = load i32, ptr %107, align 8
  %109 = sext i32 %108 to i64
  %110 = sub i64 %105, %109
  %111 = call i64 @g_strlcpy(ptr noundef %103, ptr noundef %104, i64 noundef %110)
  br label %116

112:                                              ; preds = %68
  %113 = load ptr, ptr %6, align 8
  %114 = load ptr, ptr %9, align 8
  %115 = getelementptr inbounds %struct.col_item_t, ptr %114, i32 0, i32 7
  store ptr %113, ptr %115, align 8
  br label %116

116:                                              ; preds = %112, %95
  br label %117

117:                                              ; preds = %116, %53
  br label %118

118:                                              ; preds = %117
  %119 = load i32, ptr %7, align 4
  %120 = add i32 %119, 1
  store i32 %120, ptr %7, align 4
  br label %43, !llvm.loop !23

121:                                              ; preds = %43, %29
  ret void
}