; Function Attrs: nounwind uwtable
define void @col_set_str(ptr noundef readonly %0, i32 noundef %1, ptr noundef %2) local_unnamed_addr #0 {
  %.not = icmp eq ptr %2, null
  br i1 %.not, label %4, label %5

4:                                                ; preds = %3
  tail call void (ptr, ...) @proto_report_dissector_bug(ptr noundef nonnull @.str.6, ptr noundef nonnull @.str.7, i32 noundef 772, ptr noundef nonnull @.str.8) #19
  unreachable

5:                                                ; preds = %3
  %6 = icmp eq ptr %0, null
  br i1 %6, label %col_get_writable.exit.thread, label %7

7:                                                ; preds = %5
  %8 = icmp eq i32 %1, -1
  %.phi.trans.insert.i = getelementptr inbounds nuw i8, ptr %0, i64 56
  %.pre.i = load i32, ptr %.phi.trans.insert.i, align 8
  br i1 %8, label %col_get_writable.exit, label %9

9:                                                ; preds = %7
  %10 = icmp eq i32 %.pre.i, 0
  br i1 %10, label %col_get_writable.exit.thread, label %11

11:                                               ; preds = %9
  %12 = getelementptr inbounds nuw i8, ptr %0, i64 24
  %13 = load ptr, ptr %12, align 8
  %14 = sext i32 %1 to i64
  %15 = getelementptr i32, ptr %13, i64 %14
  %16 = load i32, ptr %15, align 4
  %17 = icmp sgt i32 %16, -1
  br i1 %17, label %.preheader.i, label %col_get_writable.exit.thread

.preheader.i:                                     ; preds = %11
  %18 = getelementptr inbounds nuw i8, ptr %0, i64 32
  %19 = load ptr, ptr %18, align 8
  %20 = getelementptr i32, ptr %19, i64 %14
  %21 = load i32, ptr %20, align 4
  %.not22.i = icmp sgt i32 %16, %21
  br i1 %.not22.i, label %col_get_writable.exit.thread, label %.lr.ph.i

.lr.ph.i:                                         ; preds = %.preheader.i
  %22 = getelementptr inbounds nuw i8, ptr %0, i64 16
  %23 = load ptr, ptr %22, align 8
  br label %26

24:                                               ; preds = %26
  %25 = add i32 %.01723.i, 1
  %.not.i = icmp sgt i32 %25, %21
  br i1 %.not.i, label %col_get_writable.exit.thread, label %26, !llvm.loop !9

26:                                               ; preds = %24, %.lr.ph.i
  %.01723.i = phi i32 [ %16, %.lr.ph.i ], [ %25, %24 ]
  %27 = sext i32 %.01723.i to i64
  %28 = getelementptr %struct.col_item_t, ptr %23, i64 %27
  %29 = getelementptr inbounds nuw i8, ptr %28, i64 8
  %30 = load ptr, ptr %29, align 8
  %31 = getelementptr i32, ptr %30, i64 %14
  %32 = load i32, ptr %31, align 4
  %.not21.i = icmp eq i32 %32, 0
  br i1 %.not21.i, label %24, label %33

33:                                               ; preds = %26
  %34 = getelementptr inbounds nuw i8, ptr %28, i64 76
  %35 = load i32, ptr %34, align 4
  br label %col_get_writable.exit

col_get_writable.exit:                            ; preds = %7, %33
  %.0.i = phi i32 [ %35, %33 ], [ %.pre.i, %7 ]
  %.not34 = icmp eq i32 %.0.i, 0
  br i1 %.not34, label %col_get_writable.exit.thread, label %36

36:                                               ; preds = %col_get_writable.exit
  %37 = getelementptr inbounds nuw i8, ptr %0, i64 24
  %38 = load ptr, ptr %37, align 8
  %39 = sext i32 %1 to i64
  %40 = getelementptr i32, ptr %38, i64 %39
  %41 = load i32, ptr %40, align 4
  %42 = icmp sgt i32 %41, -1
  br i1 %42, label %43, label %col_get_writable.exit.thread

43:                                               ; preds = %36
  %44 = icmp eq i32 %1, 25
  %. = select i1 %44, i64 4096, i64 2048
  %45 = getelementptr inbounds nuw i8, ptr %0, i64 32
  %46 = load ptr, ptr %45, align 8
  %47 = getelementptr i32, ptr %46, i64 %39
  %48 = load i32, ptr %47, align 4
  %.not3543 = icmp sgt i32 %41, %48
  br i1 %.not3543, label %col_get_writable.exit.thread, label %.lr.ph

.lr.ph:                                           ; preds = %43
  %49 = getelementptr inbounds nuw i8, ptr %0, i64 16
  br label %50

50:                                               ; preds = %.lr.ph, %77
  %.044 = phi i32 [ %41, %.lr.ph ], [ %78, %77 ]
  %51 = load ptr, ptr %49, align 8
  %52 = sext i32 %.044 to i64
  %53 = getelementptr %struct.col_item_t, ptr %51, i64 %52
  %54 = getelementptr inbounds nuw i8, ptr %53, i64 8
  %55 = load ptr, ptr %54, align 8
  %56 = getelementptr i32, ptr %55, i64 %39
  %57 = load i32, ptr %56, align 4
  %.not36 = icmp eq i32 %57, 0
  br i1 %.not36, label %77, label %58

58:                                               ; preds = %50
  %59 = getelementptr inbounds nuw i8, ptr %53, i64 72
  %60 = load i32, ptr %59, align 8
  %.not37 = icmp eq i32 %60, 0
  %61 = getelementptr inbounds nuw i8, ptr %53, i64 56
  br i1 %.not37, label %76, label %62

62:                                               ; preds = %58
  %63 = load ptr, ptr %61, align 8
  %64 = getelementptr inbounds nuw i8, ptr %53, i64 64
  %65 = load ptr, ptr %64, align 8
  %.not38 = icmp eq ptr %63, %65
  br i1 %.not38, label %69, label %66

66:                                               ; preds = %62
  %67 = tail call i64 @g_strlcpy(ptr noundef %65, ptr noundef %63, i64 noundef %.) #16
  %68 = load ptr, ptr %64, align 8
  store ptr %68, ptr %61, align 8
  %.pre = load i32, ptr %59, align 8
  br label %69

69:                                               ; preds = %66, %62
  %70 = phi i32 [ %.pre, %66 ], [ %60, %62 ]
  %71 = phi ptr [ %68, %66 ], [ %65, %62 ]
  %72 = sext i32 %70 to i64
  %73 = getelementptr i8, ptr %71, i64 %72
  %74 = sub nsw i64 %., %72
  %75 = tail call i64 @g_strlcpy(ptr noundef %73, ptr noundef nonnull %2, i64 noundef %74) #16
  br label %77

76:                                               ; preds = %58
  store ptr %2, ptr %61, align 8
  br label %77

77:                                               ; preds = %50, %76, %69
  %78 = add i32 %.044, 1
  %79 = load ptr, ptr %45, align 8
  %80 = getelementptr i32, ptr %79, i64 %39
  %81 = load i32, ptr %80, align 4
  %.not35 = icmp sgt i32 %78, %81
  br i1 %.not35, label %col_get_writable.exit.thread, label %50, !llvm.loop !23

col_get_writable.exit.thread:                     ; preds = %24, %77, %43, %9, %.preheader.i, %11, %5, %col_get_writable.exit, %36
  ret void
}